target datalayout = "e-m:e-p270:32:32-p271:32:32-p272:64:64-i64:64-i128:128-f80:128-n8:16:32:64-S128"
target triple = "x86_64-pc-linux-gnu"

@hf_nfapi_p4_p5_message_header_phy_id = internal global i32 0, align 4
@hf_nfapi_p4_p5_message_header_message_id = internal global i32 0, align 4
@hf_nfapi_p4_p5_message_header_message_length = internal global i32 0, align 4
@hf_nfapi_p4_p5_message_header_spare = internal global i32 0, align 4
@hf_nfapi_error_code = internal global i32 0, align 4
@ett_nfapi_p4_p5_message_header = internal global i32 0, align 4
@.str.2652 = private unnamed_addr constant [13 x i8] c"P4 P5 Header\00", align 1

; Function Attrs: nounwind uwtable
define internal i32 @dissect_p45_header(ptr noundef %0, ptr noundef %1, ptr noundef %2, ptr noundef %3) #0 {
  %5 = alloca ptr, align 8
  %6 = alloca ptr, align 8
  %7 = alloca ptr, align 8
  %8 = alloca ptr, align 8
  %9 = alloca ptr, align 8
  store ptr %0, ptr %5, align 8
  store ptr %1, ptr %6, align 8
  store ptr %2, ptr %7, align 8
  store ptr %3, ptr %8, align 8
  %10 = load ptr, ptr %7, align 8
  %11 = load ptr, ptr %5, align 8
  %12 = load i32, ptr @ett_nfapi_p4_p5_message_header, align 4
  %13 = call ptr @proto_tree_add_subtree(ptr noundef %10, ptr noundef %11, i32 noundef 0, i32 noundef 8, i32 noundef %12, ptr noundef null, ptr noundef @.str.2652)
  store ptr %13, ptr %9, align 8
  %14 = load ptr, ptr %9, align 8
  %15 = load i32, ptr @hf_nfapi_p4_p5_message_header_phy_id, align 4
  %16 = load ptr, ptr %5, align 8
  %17 = call ptr @proto_tree_add_item(ptr noundef %14, i32 noundef %15, ptr noundef %16, i32 noundef 0, i32 noundef 2, i32 noundef 0)
  %18 = load ptr, ptr %9, align 8
  %19 = load i32, ptr @hf_nfapi_p4_p5_message_header_message_id, align 4
  %20 = load ptr, ptr %5, align 8
  %21 = call ptr @proto_tree_add_item(ptr noundef %18, i32 noundef %19, ptr noundef %20, i32 noundef 2, i32 noundef 2, i32 noundef 0)
  %22 = load ptr, ptr %9, align 8
  %23 = load i32, ptr @hf_nfapi_p4_p5_message_header_message_length, align 4
  %24 = load ptr, ptr %5, align 8
  %25 = call ptr @proto_tree_add_item(ptr noundef %22, i32 noundef %23, ptr noundef %24, i32 noundef 4, i32 noundef 2, i32 noundef 0)
  %26 = load ptr, ptr %9, align 8
  %27 = load i32, ptr @hf_nfapi_p4_p5_message_header_spare, align 4
  %28 = load ptr, ptr %5, align 8
  %29 = call ptr @proto_tree_add_item(ptr noundef %26, i32 noundef %27, ptr noundef %28, i32 noundef 6, i32 noundef 2, i32 noundef 0)
  ret i32 8
}

; Function Attrs: nounwind uwtable
define internal i32 @dissect_p45_header_with_error(ptr noundef %0, ptr noundef %1, ptr noundef %2, ptr noundef %3) #0 {
  %5 = alloca ptr, align 8
  %6 = alloca ptr, align 8
  %7 = alloca ptr, align 8
  %8 = alloca ptr, align 8
  %9 = alloca i32, align 4
  store ptr %0, ptr %5, align 8
  store ptr %1, ptr %6, align 8
  store ptr %2, ptr %7, align 8
  store ptr %3, ptr %8, align 8
  %10 = load ptr, ptr %5, align 8
  %11 = load ptr, ptr %6, align 8
  %12 = load ptr, ptr %7, align 8
  %13 = load ptr, ptr %8, align 8
  %14 = call i32 @dissect_p45_header(ptr noundef %10, ptr noundef %11, ptr noundef %12, ptr noundef %13)
  store i32 %14, ptr %9, align 4
  %15 = load ptr, ptr %7, align 8
  %16 = load i32, ptr @hf_nfapi_error_code, align 4
  %17 = load ptr, ptr %5, align 8
  %18 = load i32, ptr %9, align 4
  %19 = call ptr @proto_tree_add_item(ptr noundef %15, i32 noundef %16, ptr noundef %17, i32 noundef %18, i32 noundef 4, i32 noundef 0)
  %20 = load i32, ptr %9, align 4
  %21 = add i32 %20, 4
  ret i32 %21
}